target datalayout = "e-m:e-p270:32:32-p271:32:32-p272:64:64-i64:64-i128:128-f80:128-n8:16:32:64-S128"
target triple = "x86_64-pc-linux-gnu"

%struct.nodelist_t = type { ptr, i64, i64, i64 }
%struct.Agobj_s = type { %struct.Agtag_s, ptr }
%struct.Agtag_s = type { i32, i64 }
%struct.Agrec_s = type { ptr, ptr }
%struct.pointf_s = type { double, double }
%struct.Agedge_s = type { %struct.Agobj_s, %struct.dtlink_s_, %struct.dtlink_s_, ptr }
%struct.dtlink_s_ = type { ptr, %union.anon }
%union.anon = type { ptr }
%struct.Agedgeinfo_t = type { %struct.Agrec_s, ptr, %struct.port, %struct.port, ptr, ptr, ptr, ptr, i8, i8, i8, i8, i8, ptr, ptr, double, double, %struct.Ppoly_t, i8, i8, i16, i32, i32, i32, i16, i32, ptr }
%struct.port = type { %struct.pointf_s, double, ptr, i8, i8, i8, i8, i8, i8, ptr }
%struct.Ppoly_t = type { ptr, i64 }
%struct.edata = type { i32 }
%struct.dt_s_ = type { ptr, ptr, %struct.Dtdata_t, ptr, i32, ptr, ptr, ptr }
%struct.Dtdata_t = type { i32, ptr, %union.anon.6, i32, i32, i32 }
%union.anon.6 = type { ptr }
%struct.edgelistitem = type { %struct.dtlink_s_, ptr }

; Function Attrs: inlinehint nounwind uwtable
define internal ptr @nodelist_get(ptr noundef %0, i64 noundef %1) #3 {
  %3 = alloca ptr, align 8
  %4 = alloca i64, align 8
  store ptr %0, ptr %3, align 8, !tbaa !12
  store i64 %1, ptr %4, align 8, !tbaa !23
  %5 = load ptr, ptr %3, align 8, !tbaa !12
  %6 = getelementptr inbounds nuw %struct.nodelist_t, ptr %5, i32 0, i32 0
  %7 = load ptr, ptr %6, align 8, !tbaa !81
  %8 = load ptr, ptr %3, align 8, !tbaa !12
  %9 = getelementptr inbounds nuw %struct.nodelist_t, ptr %8, i32 0, i32 1
  %10 = load i64, ptr %9, align 8, !tbaa !82
  %11 = load i64, ptr %4, align 8, !tbaa !23
  %12 = add i64 %10, %11
  %13 = load ptr, ptr %3, align 8, !tbaa !12
  %14 = getelementptr inbounds nuw %struct.nodelist_t, ptr %13, i32 0, i32 3
  %15 = load i64, ptr %14, align 8, !tbaa !83
  %16 = urem i64 %12, %15
  %17 = getelementptr inbounds nuw ptr, ptr %7, i64 %16
  %18 = load ptr, ptr %17, align 8, !tbaa !24
  ret ptr %18
}

; Function Attrs: inlinehint nounwind uwtable
define internal i64 @nodelist_size(ptr noundef %0) #3 {
  %2 = alloca ptr, align 8
  store ptr %0, ptr %2, align 8, !tbaa !12
  %3 = load ptr, ptr %2, align 8, !tbaa !12
  %4 = getelementptr inbounds nuw %struct.nodelist_t, ptr %3, i32 0, i32 2
  %5 = load i64, ptr %4, align 8, !tbaa !77
  ret i64 %5
}

; Function Attrs: nounwind uwtable
define internal i32 @count_all_crossings(ptr noundef %0, ptr noundef %1) #0 {
  %3 = alloca ptr, align 8
  %4 = alloca ptr, align 8
  %5 = alloca ptr, align 8
  %6 = alloca ptr, align 8
  %7 = alloca ptr, align 8
  %8 = alloca i32, align 4
  %9 = alloca i32, align 4
  %10 = alloca i64, align 8
  %11 = alloca ptr, align 8
  %12 = alloca ptr, align 8
  store ptr %0, ptr %3, align 8, !tbaa !12
  store ptr %1, ptr %4, align 8, !tbaa !3
  call void @llvm.lifetime.start.p0(i64 8, ptr %5) #13
  %13 = call ptr @init_edgelist()
  store ptr %13, ptr %5, align 8, !tbaa !123
  call void @llvm.lifetime.start.p0(i64 8, ptr %6) #13
  call void @llvm.lifetime.start.p0(i64 8, ptr %7) #13
  call void @llvm.lifetime.start.p0(i64 4, ptr %8) #13
  store i32 0, ptr %8, align 4, !tbaa !46
  call void @llvm.lifetime.start.p0(i64 4, ptr %9) #13
  store i32 1, ptr %9, align 4, !tbaa !46
  %14 = load ptr, ptr %4, align 8, !tbaa !3
  %15 = call ptr @agfstnode(ptr noundef %14)
  store ptr %15, ptr %6, align 8, !tbaa !24
  br label %16

16:                                               ; preds = %38, %2
  %17 = load ptr, ptr %6, align 8, !tbaa !24
  %18 = icmp ne ptr %17, null
  br i1 %18, label %19, label %42

19:                                               ; preds = %16
  %20 = load ptr, ptr %4, align 8, !tbaa !3
  %21 = load ptr, ptr %6, align 8, !tbaa !24
  %22 = call ptr @agfstout(ptr noundef %20, ptr noundef %21)
  store ptr %22, ptr %7, align 8, !tbaa !53
  br label %23

23:                                               ; preds = %33, %19
  %24 = load ptr, ptr %7, align 8, !tbaa !53
  %25 = icmp ne ptr %24, null
  br i1 %25, label %26, label %37

26:                                               ; preds = %23
  %27 = load ptr, ptr %7, align 8, !tbaa !53
  %28 = getelementptr inbounds nuw %struct.Agobj_s, ptr %27, i32 0, i32 1
  %29 = load ptr, ptr %28, align 8, !tbaa !25
  %30 = getelementptr inbounds nuw %struct.Agedgeinfo_t, ptr %29, i32 0, i32 14
  %31 = load ptr, ptr %30, align 8, !tbaa !125
  %32 = getelementptr inbounds nuw %struct.edata, ptr %31, i32 0, i32 0
  store i32 0, ptr %32, align 4, !tbaa !126
  br label %33

33:                                               ; preds = %26
  %34 = load ptr, ptr %4, align 8, !tbaa !3
  %35 = load ptr, ptr %7, align 8, !tbaa !53
  %36 = call ptr @agnxtout(ptr noundef %34, ptr noundef %35)
  store ptr %36, ptr %7, align 8, !tbaa !53
  br label %23, !llvm.loop !128

37:                                               ; preds = %23
  br label %38

38:                                               ; preds = %37
  %39 = load ptr, ptr %4, align 8, !tbaa !3
  %40 = load ptr, ptr %6, align 8, !tbaa !24
  %41 = call ptr @agnxtnode(ptr noundef %39, ptr noundef %40)
  store ptr %41, ptr %6, align 8, !tbaa !24
  br label %16, !llvm.loop !129

42:                                               ; preds = %16
  call void @llvm.lifetime.start.p0(i64 8, ptr %10) #13
  store i64 0, ptr %10, align 8, !tbaa !23
  br label %43

43:                                               ; preds = %186, %42
  %44 = load i64, ptr %10, align 8, !tbaa !23
  %45 = load ptr, ptr %3, align 8, !tbaa !12
  %46 = call i64 @nodelist_size(ptr noundef %45)
  %47 = icmp ult i64 %44, %46
  br i1 %47, label %49, label %48

48:                                               ; preds = %43
  call void @llvm.lifetime.end.p0(i64 8, ptr %10) #13
  br label %189

49:                                               ; preds = %43
  %50 = load ptr, ptr %3, align 8, !tbaa !12
  %51 = load i64, ptr %10, align 8, !tbaa !23
  %52 = call ptr @nodelist_get(ptr noundef %50, i64 noundef %51)
  store ptr %52, ptr %6, align 8, !tbaa !24
  %53 = load ptr, ptr %4, align 8, !tbaa !3
  %54 = load ptr, ptr %6, align 8, !tbaa !24
  %55 = call ptr @agfstedge(ptr noundef %53, ptr noundef %54)
  store ptr %55, ptr %7, align 8, !tbaa !53
  br label %56

56:                                               ; preds = %146, %49
  %57 = load ptr, ptr %7, align 8, !tbaa !53
  %58 = icmp ne ptr %57, null
  br i1 %58, label %59, label %151

59:                                               ; preds = %56
  %60 = load ptr, ptr %7, align 8, !tbaa !53
  %61 = getelementptr inbounds nuw %struct.Agobj_s, ptr %60, i32 0, i32 1
  %62 = load ptr, ptr %61, align 8, !tbaa !25
  %63 = getelementptr inbounds nuw %struct.Agedgeinfo_t, ptr %62, i32 0, i32 14
  %64 = load ptr, ptr %63, align 8, !tbaa !125
  %65 = getelementptr inbounds nuw %struct.edata, ptr %64, i32 0, i32 0
  %66 = load i32, ptr %65, align 4, !tbaa !126
  %67 = icmp sgt i32 %66, 0
  br i1 %67, label %68, label %145

68:                                               ; preds = %59
  call void @llvm.lifetime.start.p0(i64 8, ptr %11) #13
  call void @llvm.lifetime.start.p0(i64 8, ptr %12) #13
  %69 = load ptr, ptr %5, align 8, !tbaa !123
  %70 = getelementptr inbounds nuw %struct.dt_s_, ptr %69, i32 0, i32 0
  %71 = load ptr, ptr %70, align 8, !tbaa !130
  %72 = load ptr, ptr %5, align 8, !tbaa !123
  %73 = call ptr %71(ptr noundef %72, ptr noundef null, i32 noundef 128)
  store ptr %73, ptr %11, align 8, !tbaa !134
  br label %74

74:                                               ; preds = %135, %68
  %75 = load ptr, ptr %11, align 8, !tbaa !134
  %76 = icmp ne ptr %75, null
  br i1 %76, label %77, label %142

77:                                               ; preds = %74
  %78 = load ptr, ptr %11, align 8, !tbaa !134
  %79 = getelementptr inbounds nuw %struct.edgelistitem, ptr %78, i32 0, i32 1
  %80 = load ptr, ptr %79, align 8, !tbaa !136
  store ptr %80, ptr %12, align 8, !tbaa !53
  %81 = load ptr, ptr %12, align 8, !tbaa !53
  %82 = getelementptr inbounds nuw %struct.Agobj_s, ptr %81, i32 0, i32 1
  %83 = load ptr, ptr %82, align 8, !tbaa !25
  %84 = getelementptr inbounds nuw %struct.Agedgeinfo_t, ptr %83, i32 0, i32 14
  %85 = load ptr, ptr %84, align 8, !tbaa !125
  %86 = getelementptr inbounds nuw %struct.edata, ptr %85, i32 0, i32 0
  %87 = load i32, ptr %86, align 4, !tbaa !126
  %88 = load ptr, ptr %7, align 8, !tbaa !53
  %89 = getelementptr inbounds nuw %struct.Agobj_s, ptr %88, i32 0, i32 1
  %90 = load ptr, ptr %89, align 8, !tbaa !25
  %91 = getelementptr inbounds nuw %struct.Agedgeinfo_t, ptr %90, i32 0, i32 14
  %92 = load ptr, ptr %91, align 8, !tbaa !125
  %93 = getelementptr inbounds nuw %struct.edata, ptr %92, i32 0, i32 0
  %94 = load i32, ptr %93, align 4, !tbaa !126
  %95 = icmp sgt i32 %87, %94
  br i1 %95, label %96, label %134

96:                                               ; preds = %77
  %97 = load ptr, ptr %12, align 8, !tbaa !53
  %98 = getelementptr inbounds nuw %struct.Agobj_s, ptr %97, i32 0, i32 0
  %99 = load i32, ptr %98, align 8
  %100 = and i32 %99, 3
  %101 = icmp eq i32 %100, 2
  br i1 %101, label %102, label %104

102:                                              ; preds = %96
  %103 = load ptr, ptr %12, align 8, !tbaa !53
  br label %107

104:                                              ; preds = %96
  %105 = load ptr, ptr %12, align 8, !tbaa !53
  %106 = getelementptr inbounds %struct.Agedge_s, ptr %105, i64 -1
  br label %107

107:                                              ; preds = %104, %102
  %108 = phi ptr [ %103, %102 ], [ %106, %104 ]
  %109 = getelementptr inbounds nuw %struct.Agedge_s, ptr %108, i32 0, i32 3
  %110 = load ptr, ptr %109, align 8, !tbaa !54
  %111 = load ptr, ptr %6, align 8, !tbaa !24
  %112 = icmp ne ptr %110, %111
  br i1 %112, label %113, label %133

113:                                              ; preds = %107
  %114 = load ptr, ptr %12, align 8, !tbaa !53
  %115 = getelementptr inbounds nuw %struct.Agobj_s, ptr %114, i32 0, i32 0
  %116 = load i32, ptr %115, align 8
  %117 = and i32 %116, 3
  %118 = icmp eq i32 %117, 3
  br i1 %118, label %119, label %121

119:                                              ; preds = %113
  %120 = load ptr, ptr %12, align 8, !tbaa !53
  br label %124

121:                                              ; preds = %113
  %122 = load ptr, ptr %12, align 8, !tbaa !53
  %123 = getelementptr inbounds %struct.Agedge_s, ptr %122, i64 1
  br label %124

124:                                              ; preds = %121, %119
  %125 = phi ptr [ %120, %119 ], [ %123, %121 ]
  %126 = getelementptr inbounds nuw %struct.Agedge_s, ptr %125, i32 0, i32 3
  %127 = load ptr, ptr %126, align 8, !tbaa !54
  %128 = load ptr, ptr %6, align 8, !tbaa !24
  %129 = icmp ne ptr %127, %128
  br i1 %129, label %130, label %133

130:                                              ; preds = %124
  %131 = load i32, ptr %8, align 4, !tbaa !46
  %132 = add nsw i32 %131, 1
  store i32 %132, ptr %8, align 4, !tbaa !46
  br label %133

133:                                              ; preds = %130, %124, %107
  br label %134

134:                                              ; preds = %133, %77
  br label %135

135:                                              ; preds = %134
  %136 = load ptr, ptr %5, align 8, !tbaa !123
  %137 = getelementptr inbounds nuw %struct.dt_s_, ptr %136, i32 0, i32 0
  %138 = load ptr, ptr %137, align 8, !tbaa !130
  %139 = load ptr, ptr %5, align 8, !tbaa !123
  %140 = load ptr, ptr %11, align 8, !tbaa !134
  %141 = call ptr %138(ptr noundef %139, ptr noundef %140, i32 noundef 8)
  store ptr %141, ptr %11, align 8, !tbaa !134
  br label %74, !llvm.loop !138

142:                                              ; preds = %74
  %143 = load ptr, ptr %5, align 8, !tbaa !123
  %144 = load ptr, ptr %7, align 8, !tbaa !53
  call void @remove_edge(ptr noundef %143, ptr noundef %144)
  call void @llvm.lifetime.end.p0(i64 8, ptr %12) #13
  call void @llvm.lifetime.end.p0(i64 8, ptr %11) #13
  br label %145

145:                                              ; preds = %142, %59
  br label %146

146:                                              ; preds = %145
  %147 = load ptr, ptr %4, align 8, !tbaa !3
  %148 = load ptr, ptr %7, align 8, !tbaa !53
  %149 = load ptr, ptr %6, align 8, !tbaa !24
  %150 = call ptr @agnxtedge(ptr noundef %147, ptr noundef %148, ptr noundef %149)
  store ptr %150, ptr %7, align 8, !tbaa !53
  br label %56, !llvm.loop !139

151:                                              ; preds = %56
  %152 = load ptr, ptr %4, align 8, !tbaa !3
  %153 = load ptr, ptr %6, align 8, !tbaa !24
  %154 = call ptr @agfstedge(ptr noundef %152, ptr noundef %153)
  store ptr %154, ptr %7, align 8, !tbaa !53
  br label %155

155:                                              ; preds = %178, %151
  %156 = load ptr, ptr %7, align 8, !tbaa !53
  %157 = icmp ne ptr %156, null
  br i1 %157, label %158, label %183

158:                                              ; preds = %155
  %159 = load ptr, ptr %7, align 8, !tbaa !53
  %160 = getelementptr inbounds nuw %struct.Agobj_s, ptr %159, i32 0, i32 1
  %161 = load ptr, ptr %160, align 8, !tbaa !25
  %162 = getelementptr inbounds nuw %struct.Agedgeinfo_t, ptr %161, i32 0, i32 14
  %163 = load ptr, ptr %162, align 8, !tbaa !125
  %164 = getelementptr inbounds nuw %struct.edata, ptr %163, i32 0, i32 0
  %165 = load i32, ptr %164, align 4, !tbaa !126
  %166 = icmp eq i32 %165, 0
  br i1 %166, label %167, label %177

167:                                              ; preds = %158
  %168 = load i32, ptr %9, align 4, !tbaa !46
  %169 = load ptr, ptr %7, align 8, !tbaa !53
  %170 = getelementptr inbounds nuw %struct.Agobj_s, ptr %169, i32 0, i32 1
  %171 = load ptr, ptr %170, align 8, !tbaa !25
  %172 = getelementptr inbounds nuw %struct.Agedgeinfo_t, ptr %171, i32 0, i32 14
  %173 = load ptr, ptr %172, align 8, !tbaa !125
  %174 = getelementptr inbounds nuw %struct.edata, ptr %173, i32 0, i32 0
  store i32 %168, ptr %174, align 4, !tbaa !126
  %175 = load ptr, ptr %5, align 8, !tbaa !123
  %176 = load ptr, ptr %7, align 8, !tbaa !53
  call void @add_edge(ptr noundef %175, ptr noundef %176)
  br label %177

177:                                              ; preds = %167, %158
  br label %178

178:                                              ; preds = %177
  %179 = load ptr, ptr %4, align 8, !tbaa !3
  %180 = load ptr, ptr %7, align 8, !tbaa !53
  %181 = load ptr, ptr %6, align 8, !tbaa !24
  %182 = call ptr @agnxtedge(ptr noundef %179, ptr noundef %180, ptr noundef %181)
  store ptr %182, ptr %7, align 8, !tbaa !53
  br label %155, !llvm.loop !140

183:                                              ; preds = %155
  %184 = load i32, ptr %9, align 4, !tbaa !46
  %185 = add nsw i32 %184, 1
  store i32 %185, ptr %9, align 4, !tbaa !46
  br label %186

186:                                              ; preds = %183
  %187 = load i64, ptr %10, align 8, !tbaa !23
  %188 = add i64 %187, 1
  store i64 %188, ptr %10, align 8, !tbaa !23
  br label %43, !llvm.loop !141

189:                                              ; preds = %48
  %190 = load ptr, ptr %5, align 8, !tbaa !123
  call void @free_edgelist(ptr noundef %190)
  %191 = load i32, ptr %8, align 4, !tbaa !46
  call void @llvm.lifetime.end.p0(i64 4, ptr %9) #13
  call void @llvm.lifetime.end.p0(i64 4, ptr %8) #13
  call void @llvm.lifetime.end.p0(i64 8, ptr %7) #13
  call void @llvm.lifetime.end.p0(i64 8, ptr %6) #13
  call void @llvm.lifetime.end.p0(i64 8, ptr %5) #13
  ret i32 %191
}