; Function Attrs: nounwind uwtable
define internal fastcc i32 @count_all_crossings(ptr noundef readonly captures(none) %0, ptr noundef %1) unnamed_addr #0 {
  %3 = tail call ptr @init_edgelist() #22
  %4 = tail call ptr @agfstnode(ptr noundef %1) #22
  %.not72 = icmp eq ptr %4, null
  br i1 %.not72, label %.preheader, label %.lr.ph75

.preheader:                                       ; preds = %._crit_edge, %2
  %5 = getelementptr i8, ptr %0, i64 16
  %.val94 = load i64, ptr %5, align 8, !tbaa !86
  %.not101 = icmp eq i64 %.val94, 0
  br i1 %.not101, label %._crit_edge99, label %.lr.ph98

.lr.ph98:                                         ; preds = %.preheader
  %6 = getelementptr inbounds nuw i8, ptr %0, i64 8
  %7 = getelementptr inbounds nuw i8, ptr %0, i64 24
  br label %15

.lr.ph75:                                         ; preds = %2, %._crit_edge
  %.073 = phi ptr [ %14, %._crit_edge ], [ %4, %2 ]
  %8 = tail call ptr @agfstout(ptr noundef %1, ptr noundef nonnull %.073) #22
  %.not6970 = icmp eq ptr %8, null
  br i1 %.not6970, label %._crit_edge, label %.lr.ph

.lr.ph:                                           ; preds = %.lr.ph75, %.lr.ph
  %.05971 = phi ptr [ %13, %.lr.ph ], [ %8, %.lr.ph75 ]
  %9 = getelementptr inbounds nuw i8, ptr %.05971, i64 16
  %10 = load ptr, ptr %9, align 8, !tbaa !24
  %11 = getelementptr inbounds nuw i8, ptr %10, i64 168
  %12 = load ptr, ptr %11, align 8, !tbaa !127
  store i32 0, ptr %12, align 4, !tbaa !128
  %13 = tail call ptr @agnxtout(ptr noundef %1, ptr noundef nonnull %.05971) #22
  %.not69 = icmp eq ptr %13, null
  br i1 %.not69, label %._crit_edge, label %.lr.ph, !llvm.loop !130

._crit_edge:                                      ; preds = %.lr.ph, %.lr.ph75
  %14 = tail call ptr @agnxtnode(ptr noundef %1, ptr noundef nonnull %.073) #22
  %.not = icmp eq ptr %14, null
  br i1 %.not, label %.preheader, label %.lr.ph75, !llvm.loop !131

._crit_edge99:                                    ; preds = %._crit_edge93, %.preheader
  %.058.lcssa = phi i32 [ 0, %.preheader ], [ %.1.lcssa, %._crit_edge93 ]
  tail call void @free_edgelist(ptr noundef %3) #22
  ret i32 %.058.lcssa

15:                                               ; preds = %.lr.ph98, %._crit_edge93
  %.05697 = phi i64 [ 0, %.lr.ph98 ], [ %74, %._crit_edge93 ]
  %.05796 = phi i32 [ 1, %.lr.ph98 ], [ %73, %._crit_edge93 ]
  %.05895 = phi i32 [ 0, %.lr.ph98 ], [ %.1.lcssa, %._crit_edge93 ]
  %16 = load ptr, ptr %0, align 8, !tbaa !84
  %17 = load i64, ptr %6, align 8, !tbaa !90
  %18 = add i64 %17, %.05697
  %19 = load i64, ptr %7, align 8, !tbaa !85
  %20 = urem i64 %18, %19
  %21 = getelementptr inbounds nuw ptr, ptr %16, i64 %20
  %22 = load ptr, ptr %21, align 8, !tbaa !63
  %23 = tail call ptr @agfstedge(ptr noundef %1, ptr noundef %22) #22
  %.not6382 = icmp eq ptr %23, null
  br i1 %.not6382, label %._crit_edge87, label %.lr.ph86

.lr.ph86:                                         ; preds = %15, %61
  %.184 = phi i32 [ %.4, %61 ], [ %.05895, %15 ]
  %.16083 = phi ptr [ %62, %61 ], [ %23, %15 ]
  %24 = getelementptr inbounds nuw i8, ptr %.16083, i64 16
  %25 = load ptr, ptr %24, align 8, !tbaa !24
  %26 = getelementptr inbounds nuw i8, ptr %25, i64 168
  %27 = load ptr, ptr %26, align 8, !tbaa !127
  %28 = load i32, ptr %27, align 4, !tbaa !128
  %29 = icmp sgt i32 %28, 0
  br i1 %29, label %30, label %61

30:                                               ; preds = %.lr.ph86
  %31 = load ptr, ptr %3, align 8, !tbaa !132
  %32 = tail call ptr %31(ptr noundef nonnull %3, ptr noundef null, i32 noundef 128) #22
  %.not6576 = icmp eq ptr %32, null
  br i1 %.not6576, label %._crit_edge81, label %.lr.ph80

.lr.ph80:                                         ; preds = %30, %58
  %.05578 = phi ptr [ %60, %58 ], [ %32, %30 ]
  %.277 = phi i32 [ %.3, %58 ], [ %.184, %30 ]
  %33 = getelementptr inbounds nuw i8, ptr %.05578, i64 16
  %34 = load ptr, ptr %33, align 8, !tbaa !137
  %35 = getelementptr inbounds nuw i8, ptr %34, i64 16
  %36 = load ptr, ptr %35, align 8, !tbaa !24
  %37 = getelementptr inbounds nuw i8, ptr %36, i64 168
  %38 = load ptr, ptr %37, align 8, !tbaa !127
  %39 = load i32, ptr %38, align 4, !tbaa !128
  %40 = load ptr, ptr %24, align 8, !tbaa !24
  %41 = getelementptr inbounds nuw i8, ptr %40, i64 168
  %42 = load ptr, ptr %41, align 8, !tbaa !127
  %43 = load i32, ptr %42, align 4, !tbaa !128
  %44 = icmp sgt i32 %39, %43
  br i1 %44, label %45, label %58

45:                                               ; preds = %.lr.ph80
  %46 = load i32, ptr %34, align 8
  %47 = and i32 %46, 3
  %48 = icmp eq i32 %47, 2
  %.idx = select i1 %48, i64 0, i64 -64
  %49 = getelementptr inbounds i8, ptr %34, i64 %.idx
  %50 = getelementptr inbounds nuw i8, ptr %49, i64 56
  %51 = load ptr, ptr %50, align 8, !tbaa !17
  %.not66 = icmp eq ptr %51, %22
  br i1 %.not66, label %58, label %52

52:                                               ; preds = %45
  %53 = icmp eq i32 %47, 3
  %.idx67 = select i1 %53, i64 0, i64 64
  %54 = getelementptr inbounds nuw i8, ptr %34, i64 %.idx67
  %55 = getelementptr inbounds nuw i8, ptr %54, i64 56
  %56 = load ptr, ptr %55, align 8, !tbaa !17
  %.not68 = icmp ne ptr %56, %22
  %57 = zext i1 %.not68 to i32
  %spec.select = add nsw i32 %.277, %57
  br label %58

58:                                               ; preds = %52, %.lr.ph80, %45
  %.3 = phi i32 [ %.277, %45 ], [ %.277, %.lr.ph80 ], [ %spec.select, %52 ]
  %59 = load ptr, ptr %3, align 8, !tbaa !132
  %60 = tail call ptr %59(ptr noundef nonnull %3, ptr noundef nonnull %.05578, i32 noundef 8) #22
  %.not65 = icmp eq ptr %60, null
  br i1 %.not65, label %._crit_edge81, label %.lr.ph80, !llvm.loop !139

._crit_edge81:                                    ; preds = %58, %30
  %.2.lcssa = phi i32 [ %.184, %30 ], [ %.3, %58 ]
  tail call void @remove_edge(ptr noundef nonnull %3, ptr noundef nonnull %.16083) #22
  br label %61

61:                                               ; preds = %.lr.ph86, %._crit_edge81
  %.4 = phi i32 [ %.2.lcssa, %._crit_edge81 ], [ %.184, %.lr.ph86 ]
  %62 = tail call ptr @agnxtedge(ptr noundef %1, ptr noundef nonnull %.16083, ptr noundef %22) #22
  %.not63 = icmp eq ptr %62, null
  br i1 %.not63, label %._crit_edge87, label %.lr.ph86, !llvm.loop !140

._crit_edge87:                                    ; preds = %61, %15
  %.1.lcssa = phi i32 [ %.05895, %15 ], [ %.4, %61 ]
  %63 = tail call ptr @agfstedge(ptr noundef %1, ptr noundef %22) #22
  %.not6489 = icmp eq ptr %63, null
  br i1 %.not6489, label %._crit_edge93, label %.lr.ph92

.lr.ph92:                                         ; preds = %._crit_edge87, %71
  %.26190 = phi ptr [ %72, %71 ], [ %63, %._crit_edge87 ]
  %64 = getelementptr inbounds nuw i8, ptr %.26190, i64 16
  %65 = load ptr, ptr %64, align 8, !tbaa !24
  %66 = getelementptr inbounds nuw i8, ptr %65, i64 168
  %67 = load ptr, ptr %66, align 8, !tbaa !127
  %68 = load i32, ptr %67, align 4, !tbaa !128
  %69 = icmp eq i32 %68, 0
  br i1 %69, label %70, label %71

70:                                               ; preds = %.lr.ph92
  store i32 %.05796, ptr %67, align 4, !tbaa !128
  tail call void @add_edge(ptr noundef %3, ptr noundef nonnull %.26190) #22
  br label %71

71:                                               ; preds = %.lr.ph92, %70
  %72 = tail call ptr @agnxtedge(ptr noundef %1, ptr noundef nonnull %.26190, ptr noundef %22) #22
  %.not64 = icmp eq ptr %72, null
  br i1 %.not64, label %._crit_edge93, label %.lr.ph92, !llvm.loop !141

._crit_edge93:                                    ; preds = %71, %._crit_edge87
  %73 = add nuw nsw i32 %.05796, 1
  %74 = add nuw i64 %.05697, 1
  %.val = load i64, ptr %5, align 8, !tbaa !86
  %75 = icmp ult i64 %74, %.val
  br i1 %75, label %15, label %._crit_edge99, !llvm.loop !142
}